target datalayout = "e-m:e-p270:32:32-p271:32:32-p272:64:64-i64:64-i128:128-f80:128-n8:16:32:64-S128"
target triple = "x86_64-pc-linux-gnu"

; Function Attrs: inlinehint nounwind uwtable
define internal void @Put16(i32 noundef %0, ptr noundef %1) #4 {
  %3 = alloca i32, align 4
  %4 = alloca ptr, align 8
  %5 = alloca i32, align 4
  store i32 %0, ptr %3, align 4, !tbaa !9
  store ptr %1, ptr %4, align 8, !tbaa !16
  call void @llvm.lifetime.start.p0(i64 4, ptr %5) #7
  store i32 0, ptr %5, align 4, !tbaa !9
  br label %6

6:                                                ; preds = %17, %2
  %7 = load i32, ptr %5, align 4, !tbaa !9
  %8 = icmp slt i32 %7, 16
  br i1 %8, label %9, label %20

9:                                                ; preds = %6
  %10 = load ptr, ptr %4, align 8, !tbaa !16
  %11 = load i32, ptr %5, align 4, !tbaa !9
  %12 = mul nsw i32 %11, 32
  %13 = sext i32 %12 to i64
  %14 = getelementptr inbounds i8, ptr %10, i64 %13
  %15 = load i32, ptr %3, align 4, !tbaa !9
  %16 = trunc i32 %15 to i8
  call void @llvm.memset.p0.i64(ptr align 1 %14, i8 %16, i64 16, i1 false)
  br label %17

17:                                               ; preds = %9
  %18 = load i32, ptr %5, align 4, !tbaa !9
  %19 = add nsw i32 %18, 1
  store i32 %19, ptr %5, align 4, !tbaa !9
  br label %6, !llvm.loop !50

20:                                               ; preds = %6
  call void @llvm.lifetime.end.p0(i64 4, ptr %5) #7
  ret void
}

; Function Attrs: nounwind uwtable
define internal void @DC16NoTop_C(ptr noundef %0) #0 {
  %2 = alloca ptr, align 8
  %3 = alloca i32, align 4
  %4 = alloca i32, align 4
  store ptr %0, ptr %2, align 8, !tbaa !16
  call void @llvm.lifetime.start.p0(i64 4, ptr %3) #7
  store i32 8, ptr %3, align 4, !tbaa !9
  call void @llvm.lifetime.start.p0(i64 4, ptr %4) #7
  store i32 0, ptr %4, align 4, !tbaa !9
  br label %5

5:                                                ; preds = %19, %1
  %6 = load i32, ptr %4, align 4, !tbaa !9
  %7 = icmp slt i32 %6, 16
  br i1 %7, label %8, label %22

8:                                                ; preds = %5
  %9 = load ptr, ptr %2, align 8, !tbaa !16
  %10 = load i32, ptr %4, align 4, !tbaa !9
  %11 = mul nsw i32 %10, 32
  %12 = add nsw i32 -1, %11
  %13 = sext i32 %12 to i64
  %14 = getelementptr inbounds i8, ptr %9, i64 %13
  %15 = load i8, ptr %14, align 1, !tbaa !18
  %16 = zext i8 %15 to i32
  %17 = load i32, ptr %3, align 4, !tbaa !9
  %18 = add nsw i32 %17, %16
  store i32 %18, ptr %3, align 4, !tbaa !9
  br label %19

19:                                               ; preds = %8
  %20 = load i32, ptr %4, align 4, !tbaa !9
  %21 = add nsw i32 %20, 1
  store i32 %21, ptr %4, align 4, !tbaa !9
  br label %5, !llvm.loop !33

22:                                               ; preds = %5
  %23 = load i32, ptr %3, align 4, !tbaa !9
  %24 = ashr i32 %23, 4
  %25 = load ptr, ptr %2, align 8, !tbaa !16
  call void @Put16(i32 noundef %24, ptr noundef %25)
  call void @llvm.lifetime.end.p0(i64 4, ptr %4) #7
  call void @llvm.lifetime.end.p0(i64 4, ptr %3) #7
  ret void
}