; Function Attrs: nofree norecurse nosync nounwind memory(argmem: readwrite) uwtable
define internal void @DC16NoTop_C(ptr noundef captures(none) %0) #3 {
  %invariant.gep = getelementptr i8, ptr %0, i64 -1
  br label %2

2:                                                ; preds = %1, %2
  %indvars.iv = phi i64 [ 0, %1 ], [ %indvars.iv.next, %2 ]
  %.067 = phi i32 [ 8, %1 ], [ %6, %2 ]
  %3 = shl nuw nsw i64 %indvars.iv, 5
  %gep = getelementptr i8, ptr %invariant.gep, i64 %3
  %4 = load i8, ptr %gep, align 1, !tbaa !14
  %5 = zext i8 %4 to i32
  %6 = add nuw nsw i32 %.067, %5
  %indvars.iv.next = add nuw nsw i64 %indvars.iv, 1
  %exitcond.not = icmp eq i64 %indvars.iv.next, 16
  br i1 %exitcond.not, label %7, label %2, !llvm.loop !34

7:                                                ; preds = %2
  %8 = lshr i32 %6, 4
  %9 = trunc i32 %8 to i8
  br label %10

10:                                               ; preds = %10, %7
  %indvars.iv.i = phi i64 [ 0, %7 ], [ %indvars.iv.next.i, %10 ]
  %11 = shl nuw nsw i64 %indvars.iv.i, 5
  %12 = getelementptr inbounds nuw i8, ptr %0, i64 %11
  tail call void @llvm.memset.p0.i64(ptr noundef nonnull align 1 dereferenceable(16) %12, i8 %9, i64 16, i1 false)
  %indvars.iv.next.i = add nuw nsw i64 %indvars.iv.i, 1
  %exitcond.not.i = icmp eq i64 %indvars.iv.next.i, 16
  br i1 %exitcond.not.i, label %Put16.exit, label %10, !llvm.loop !31

Put16.exit:                                       ; preds = %10
  ret void
}